; Function Attrs: nounwind uwtable
define noundef i32 @SHA256_Update(ptr noundef %0, ptr noundef %1, i64 noundef %2) local_unnamed_addr #2 {
  %4 = icmp eq i64 %2, 0
  br i1 %4, label %45, label %._crit_edge

._crit_edge:                                      ; preds = %3
  %5 = getelementptr inbounds nuw i8, ptr %0, i64 32
  %6 = load i32, ptr %5, align 4, !tbaa !9
  %7 = trunc i64 %2 to i32
  %8 = shl i32 %7, 3
  %9 = add i32 %6, %8
  %10 = icmp ult i32 %9, %6
  %11 = getelementptr inbounds nuw i8, ptr %0, i64 36
  %12 = load i32, ptr %11, align 4, !tbaa !10
  %13 = zext i1 %10 to i32
  %14 = add i32 %12, %13
  %15 = lshr i64 %2, 29
  %16 = trunc i64 %15 to i32
  %17 = getelementptr inbounds nuw i8, ptr %0, i64 36
  %18 = add i32 %14, %16
  store i32 %18, ptr %17, align 4, !tbaa !10
  store i32 %9, ptr %5, align 4, !tbaa !9
  %19 = getelementptr inbounds nuw i8, ptr %0, i64 104
  %20 = load i32, ptr %19, align 4, !tbaa !11
  %21 = zext i32 %20 to i64
  %.not = icmp eq i32 %20, 0
  br i1 %.not, label %35, label %22

22:                                               ; preds = %._crit_edge
  %23 = getelementptr inbounds nuw i8, ptr %0, i64 40
  %24 = icmp ugt i64 %2, 63
  %25 = add nuw nsw i64 %2, %21
  %26 = icmp ugt i64 %25, 63
  %or.cond = select i1 %24, i1 true, i1 %26
  %27 = getelementptr inbounds nuw i8, ptr %23, i64 %21
  br i1 %or.cond, label %28, label %32

28:                                               ; preds = %22
  %29 = sub nsw i64 64, %21
  tail call void @llvm.memcpy.p0.p0.i64(ptr nonnull align 1 %27, ptr align 1 %1, i64 %29, i1 false)
  tail call void @sha256_block_data_order(ptr noundef nonnull %0, ptr noundef nonnull %23, i64 noundef 1) #5
  %30 = getelementptr inbounds nuw i8, ptr %1, i64 %29
  %31 = sub i64 %2, %29
  tail call void @llvm.memset.p0.i64(ptr noundef nonnull align 1 dereferenceable(68) %23, i8 0, i64 68, i1 false)
  br label %35

32:                                               ; preds = %22
  tail call void @llvm.memcpy.p0.p0.i64(ptr nonnull align 1 %27, ptr align 1 %1, i64 %2, i1 false)
  %33 = load i32, ptr %19, align 4, !tbaa !11
  %34 = add i32 %33, %7
  store i32 %34, ptr %19, align 4, !tbaa !11
  br label %45

35:                                               ; preds = %28, %._crit_edge
  %.054 = phi i64 [ %31, %28 ], [ %2, %._crit_edge ]
  %.053 = phi ptr [ %30, %28 ], [ %1, %._crit_edge ]
  %.not58 = icmp ult i64 %.054, 64
  br i1 %.not58, label %41, label %36

36:                                               ; preds = %35
  %37 = lshr i64 %.054, 6
  tail call void @sha256_block_data_order(ptr noundef nonnull %0, ptr noundef %.053, i64 noundef %37) #5
  %38 = and i64 %.054, -64
  %39 = getelementptr inbounds nuw i8, ptr %.053, i64 %38
  %40 = and i64 %.054, 63
  br label %41

41:                                               ; preds = %36, %35
  %.155 = phi i64 [ %40, %36 ], [ %.054, %35 ]
  %.1 = phi ptr [ %39, %36 ], [ %.053, %35 ]
  %.not59 = icmp eq i64 %.155, 0
  br i1 %.not59, label %45, label %42

42:                                               ; preds = %41
  %43 = getelementptr inbounds nuw i8, ptr %0, i64 40
  %44 = trunc nuw i64 %.155 to i32
  store i32 %44, ptr %19, align 4, !tbaa !11
  tail call void @llvm.memcpy.p0.p0.i64(ptr nonnull align 1 %43, ptr align 1 %.1, i64 %.155, i1 false)
  br label %45

45:                                               ; preds = %41, %42, %3, %32
  ret i32 1
}